target datalayout = "e-m:e-p270:32:32-p271:32:32-p272:64:64-i64:64-i128:128-f80:128-n8:16:32:64-S128"
target triple = "x86_64-pc-linux-gnu"

%union.pthread_mutex_t = type { %struct.__pthread_mutex_s }
%struct.__pthread_mutex_s = type { i32, i32, i32, i32, i32, i16, i16, %struct.__pthread_internal_list }
%struct.__pthread_internal_list = type { ptr, ptr }
%struct.wolfSSL_RefWithMutex = type { %union.pthread_mutex_t, i32 }
%struct.WOLFSSL_CTX = type <{ ptr, %struct.wolfSSL_RefWithMutex, i32, [4 x i8], %struct.WOLFSSL_BUFFER_INFO, %struct.WOLFSSL_BUFFER_INFO, ptr, ptr, i32, [4 x i8], ptr, i8, i8, [2 x i8], i32, i32, [4 x i8], ptr, ptr, ptr, i8, i16, i8, i8, i8, i16, i16, i16, i16, [2 x i8], i64, ptr, ptr, ptr, ptr, i32, i32, i16, [2 x i8], i32, [10 x i16], i8, [3 x i8], ptr, ptr, i32, [4 x i8], ptr, i8, [7 x i8] }>
%struct.WOLFSSL_BUFFER_INFO = type { ptr, i32 }

; Function Attrs: nounwind uwtable
define i32 @wolfSSL_CTX_use_certificate_chain_buffer_format(ptr noundef %0, ptr noundef %1, i64 noundef %2, i32 noundef %3) #0 {
  %5 = alloca ptr, align 8
  %6 = alloca ptr, align 8
  %7 = alloca i64, align 8
  %8 = alloca i32, align 4
  store ptr %0, ptr %5, align 8, !tbaa !24
  store ptr %1, ptr %6, align 8, !tbaa !21
  store i64 %2, ptr %7, align 8, !tbaa !22
  store i32 %3, ptr %8, align 4, !tbaa !7
  br label %9

9:                                                ; preds = %4
  br label %10

10:                                               ; preds = %9
  %11 = load ptr, ptr %5, align 8, !tbaa !24
  %12 = load ptr, ptr %6, align 8, !tbaa !21
  %13 = load i64, ptr %7, align 8, !tbaa !22
  %14 = load i32, ptr %8, align 4, !tbaa !7
  %15 = load ptr, ptr %5, align 8, !tbaa !24
  %16 = icmp ne ptr %15, null
  br i1 %16, label %17, label %26

17:                                               ; preds = %10
  %18 = load ptr, ptr %5, align 8, !tbaa !24
  %19 = getelementptr inbounds nuw %struct.WOLFSSL_CTX, ptr %18, i32 0, i32 21
  %20 = load i16, ptr %19, align 1
  %21 = lshr i16 %20, 1
  %22 = and i16 %21, 1
  %23 = trunc i16 %22 to i8
  %24 = zext i8 %23 to i32
  %25 = icmp ne i32 %24, 0
  br label %26

26:                                               ; preds = %17, %10
  %27 = phi i1 [ false, %10 ], [ %25, %17 ]
  %28 = select i1 %27, i32 0, i32 1
  %29 = call i32 @ProcessBuffer(ptr noundef %11, ptr noundef %12, i64 noundef %13, i32 noundef %14, i32 noundef 0, ptr noundef null, ptr noundef null, i32 noundef 1, i32 noundef %28)
  ret i32 %29
}

; Function Attrs: nounwind uwtable
define i32 @wolfSSL_CTX_use_certificate_chain_buffer(ptr noundef %0, ptr noundef %1, i64 noundef %2) #0 {
  %4 = alloca ptr, align 8
  %5 = alloca ptr, align 8
  %6 = alloca i64, align 8
  store ptr %0, ptr %4, align 8, !tbaa !24
  store ptr %1, ptr %5, align 8, !tbaa !21
  store i64 %2, ptr %6, align 8, !tbaa !22
  %7 = load ptr, ptr %4, align 8, !tbaa !24
  %8 = load ptr, ptr %5, align 8, !tbaa !21
  %9 = load i64, ptr %6, align 8, !tbaa !22
  %10 = call i32 @wolfSSL_CTX_use_certificate_chain_buffer_format(ptr noundef %7, ptr noundef %8, i64 noundef %9, i32 noundef 1)
  ret i32 %10
}