; Function Attrs: nounwind uwtable
define i32 @wolfSSL_CTX_use_certificate_chain_buffer(ptr noundef %0, ptr noundef %1, i64 noundef %2) local_unnamed_addr #0 {
  %.not.i = icmp eq ptr %0, null
  br i1 %.not.i, label %.split.i, label %.split6.i

.split.i:                                         ; preds = %3
  %4 = tail call i32 @ProcessBuffer(ptr noundef null, ptr noundef %1, i64 noundef %2, i32 noundef 1, i32 noundef 0, ptr noundef null, ptr noundef null, i32 noundef 1, i32 noundef 1)
  br label %wolfSSL_CTX_use_certificate_chain_buffer_format.exit

.split6.i:                                        ; preds = %3
  %5 = getelementptr inbounds nuw i8, ptr %0, i64 169
  %6 = load i16, ptr %5, align 1
  %7 = and i16 %6, 2
  %.not7.i = icmp eq i16 %7, 0
  %8 = zext i1 %.not7.i to i32
  %9 = tail call i32 @ProcessBuffer(ptr noundef nonnull %0, ptr noundef %1, i64 noundef %2, i32 noundef 1, i32 noundef 0, ptr noundef null, ptr noundef null, i32 noundef 1, i32 noundef %8)
  br label %wolfSSL_CTX_use_certificate_chain_buffer_format.exit

wolfSSL_CTX_use_certificate_chain_buffer_format.exit: ; preds = %.split.i, %.split6.i
  %phi.call.i = phi i32 [ %4, %.split.i ], [ %9, %.split6.i ]
  ret i32 %phi.call.i
}